(dp0
S'METTS MARK'
p1
(dp2
S'to_messages'
p3
F2.907411360774586
sS'bonus/salary'
p4
F0.4216523509929456
sS'rec_poi/total_rec'
p5
F0.019983174227621928
sS'pca_stocks'
p6
F5.655892214226483
sS'sent_poi/total_sent'
p7
F0.014723256820706378
sS'expenses'
p8
F4.9745116927373285
sS'log-sent_poi_ratio(payments)'
p9
F409.28812468049614
sS'poi'
p10
I00
sS'deferred_income'
p11
F0.0
sS'log-rec_poi_ratio(payments)'
p12
F301.5564046379913
sS'payments/sent_poi_ratio'
p13
F7.488451776332252
sS'from_poi_to_this_person'
p14
F1.591064607026499
sS'log-rec_poi_ratio(stock-salary)'
p15
F20.761594336500952
sS'log-sent_poi_ratio(bonus-salary)'
p16
F28.638524487323043
sS'shared_receipt_with_poi'
p17
F2.846955325019824
sS'from_messages'
p18
F1.4771212547196624
sS'other'
p19
F3.240798771117331
sS'long_term_incentive'
p20
F0.0
sS'stock/salary'
p21
F0.4148825568695072
sS'bonus'
p22
F5.7781519742071765
sS'from_this_person_to_poi'
p23
F0.3010299956639812
sS'log-sent_poi_ratio(stock-salary)'
p24
F28.17872172724909
sS'restricted_stock'
p25
F5.7672026337389415
sS'payments/rec_poi_ratio'
p26
F7.3531437216941775
sS'salary'
p27
F5.563230641241189
sS'log-rec_poi_ratio(bonus-salary)'
p28
F21.100369049983698
sS'total_payments'
p29
F6.026054173336237
ssS'BAXTER JOHN C'
p30
(dp31
g3
F0.0
sg4
F0.7397831692044703
sg5
F0.0
sg6
F7.095246118661115
sg7
F0.0
sg8
F4.0492567972322275
sg9
F0.0
sg10
I00
sg11
F6.141780777173102
sg12
F0.0
sg13
F0.0
sg14
F0.0
sg15
F0.0
sg16
F0.0
sg17
F0.0
sg18
F0.0
sg19
F6.424931267450149
sg20
F6.200318517194467
sg21
F1.6103650964274185
sg22
F6.079181607959542
sg23
F0.0
sg24
F0.0
sg25
F6.595795385137959
sg26
F0.0
sg27
F5.426678765880336
sg28
F0.0
sg29
F6.750843358933216
ssS'ELLIOTT STEVEN'
p32
(dp33
g3
F0.0
sg4
F0.48394229913269166
sg5
F0.0
sg6
F6.917283461166701
sg7
F0.0
sg8
F4.895162775735844
sg9
F0.0
sg10
I00
sg11
F5.602851856400141
sg12
F0.0
sg13
F0.0
sg14
F0.0
sg15
F0.0
sg16
F0.0
sg17
F0.0
sg18
F0.0
sg19
F4.1126720171171325
sg20
F0.0
sg21
F1.602823788953664
sg22
F5.54406928518988
sg23
F0.0
sg24
F0.0
sg25
F6.252462718474217
sg26
F0.0
sg27
F5.232848780843915
sg28
F0.0
sg29
F5.325774192753433
ssS'CORDES WILLIAM R'
p34
(dp35
g3
F2.8836614351536176
sg4
F0.0
sg5
F0.005647602107202662
sg6
F6.085032142977386
sg7
F0.0
sg8
F0.0
sg9
F0.0
sg10
I00
sg11
F0.0
sg12
F0.0
sg13
F0.0
sg14
F1.0413926851582251
sg15
F0.0
sg16
F0.0
sg17
F1.7708520116421442
sg18
F1.1139433523068367
sg19
F0.0
sg20
F0.0
sg21
F0.0
sg22
F0.0
sg23
F0.0
sg24
F0.0
sg25
F5.586965178952186
sg26
F0.0
sg27
F0.0
sg28
F0.0
sg29
F0.0
ssS'HANNON KEVIN P'
p36
(dp37
g3
F3.0195316845312554
sg4
F0.8552407726640333
sg5
F0.013099412850908734
sg6
F6.927026410029685
sg7
F0.21912589128088306
sg8
F4.5319895514125506
sg9
F24.919105533026727
sg10
I01
sg11
F6.493738474244678
sg12
F416.8447297596293
sg13
F5.6433513762953105
sg14
F1.5185139398778875
sg15
F109.59798776533067
sg16
F3.90296540342536
sg17
F3.0153597554092144
sg18
F1.5185139398778875
sg19
F4.055034123674614
sg20
F6.208713242859058
sg21
F1.4356692893669107
sg22
F6.176091548585239
sg23
F1.3424226808222062
sg24
F6.551801254405947
sg25
F5.930982123858994
sg26
F6.974386063640085
sg27
F5.386131398700559
sg28
F65.28848143027292
sg29
F5.460421209846866
ssS'MORDAUNT KRISTINA M'
p38
(dp39
g3
F0.0
sg4
F0.34572742054273964
sg5
F0.0
sg6
F5.207818943238973
sg7
F0.0
sg8
F4.544303740243067
sg9
F0.0
sg10
I00
sg11
F0.0
sg12
F0.0
sg13
F0.0
sg14
F0.0
sg15
F0.0
sg16
F0.0
sg17
F0.0
sg18
F0.0
sg19
F3.149834696715785
sg20
F0.0
sg21
F0.2505820792527742
sg22
F5.511884697267532
sg23
F0.0
sg24
F0.0
sg25
F5.319128971124103
sg26
F0.0
sg27
F5.426664132139084
sg28
F0.0
sg29
F5.798321174767113
ssS'MEYER ROCKFORD G'
p40
(dp41
g3
F2.367355921026019
sg4
F0.0
sg5
F0.0
sg6
F6.022133130226197
sg7
F0.0
sg8
F0.0
sg9
F0.0
sg10
I00
sg11
F0.0
sg12
F0.0
sg13
F0.0
sg14
F0.0
sg15
F0.0
sg16
F0.0
sg17
F1.3617278360175928
sg18
F1.462397997898956
sg19
F0.0
sg20
F0.0
sg21
F0.0
sg22
F0.0
sg23
F0.0
sg24
F0.0
sg25
F5.665003736911407
sg26
F0.0
sg27
F0.0
sg28
F0.0
sg29
F6.266755545365718
ssS'MCMAHON JEFFREY'
p42
(dp43
g3
F3.372175286115064
sg4
F0.9040946996909334
sg5
F0.010566410443870845
sg6
F6.297999588841938
sg7
F0.18799048235538893
sg8
F5.137065963338382
sg9
F35.17603456400951
sg10
I00
sg11
F0.0
sg12
F625.8283965179282
sg13
F6.879027545890868
sg14
F1.7708520116421442
sg15
F69.98354369495397
sg16
F4.809257832435242
sg17
F3.3481100684802376
sg18
F1.6901960800285136
sg19
F5.473273784995186
sg20
F5.841899187023183
sg21
F0.7394748469974533
sg22
F6.414973515007125
sg23
F1.4313637641589874
sg24
F3.933575986041165
sg25
F5.747257951821903
sg26
F8.221322519617498
sg27
F5.5687284267737995
sg28
F85.56308734110956
sg29
F6.612759705037981
ssS'HAEDICKE MARK E'
p44
(dp45
g3
F3.603144372620182
sg4
F0.6100038569611281
sg5
F0.019074304110697864
sg6
F6.003047607961437
sg7
F0.013438537754937061
sg8
F4.881783955593384
sg9
F490.1189643027177
sg10
I00
sg11
F5.9705723346399315
sg12
F345.30655314962075
sg13
F8.089177797568317
sg14
F2.2576785748691846
sg15
F26.100062688710672
sg16
F45.39213031098003
sg17
F3.2667019668840878
sg18
F3.288249225571986
sg19
F4.719190367058602
sg20
F5.992706797173763
sg21
F0.49784053303274595
sg22
F6.060698218000823
sg23
F1.792391689498254
sg24
F37.04573682875943
sg25
F5.719472161197968
sg26
F7.934245649854045
sg27
F5.573017890673912
sg28
F31.98039904475499
sg29
F6.586482206192722
ssS'PIPER GREGORY F'
p46
(dp47
g3
F3.0930713063760633
sg4
F0.48137373204753275
sg5
F0.020888506388928686
sg6
F6.092983806114532
sg7
F0.08501078970834869
sg8
F4.6340538534220705
sg9
F73.40194494640043
sg10
I00
sg11
F4.5228874310831175
sg12
F298.7268304319515
sg13
F6.9050688472022745
sg14
F1.792391689498254
sg15
F35.31619281794332
sg16
F5.662501591845091
sg17
F2.8709888137605755
sg18
F2.3483048630481607
sg19
F2.8915374576725643
sg20
F0.0
sg21
F0.7377025193102463
sg22
F5.60206107706281
sg23
F1.6901960800285136
sg24
F8.677751634129315
sg25
F5.612312232329818
sg26
F7.547347878075594
sg27
F5.294668996545467
sg28
F23.04490915169838
sg29
F6.239957306022235
ssS'HUMPHREY GENE E'
p48
(dp49
g3
F2.110589710299249
sg4
F0.0
sg5
F0.032669116753368144
sg6
F6.5068195983237835
sg7
F0.3010299956639812
sg8
F3.698535492562001
sg9
F21.563941492760687
sg10
I00
sg11
F0.0
sg12
F198.70121567932625
sg13
F6.491393214064094
sg14
F1.0413926851582251
sg15
F38.761088794392364
sg16
F0.0
sg17
F2.0791812460476247
sg18
F1.255272505103306
sg19
F0.0
sg20
F0.0
sg21
F1.2662905353116738
sg22
F0.0
sg23
F1.255272505103306
sg24
F4.206526105541807
sg25
F0.0
sg26
F7.598603054571243
sg27
F5.116358650501693
sg28
F0.0
sg29
F6.491393214064094
ssS'BLACHMAN JEREMY M'
p50
(dp51
g3
F3.39375064034808
sg4
F0.6454114689113203
sg5
F0.0043648054024501125
sg6
F6.087516793427584
sg7
F0.05799194697768673
sg8
F4.9253585100442745
sg9
F108.70888167316713
sg10
I00
sg11
F0.0
sg12
F1444.3346542906922
sg13
F7.149337557252458
sg14
F1.414973347970818
sg15
F156.8965128046791
sg16
F11.129329200822522
sg17
F3.36679638328673
sg18
F1.1760912590556813
sg19
F2.436162647040756
sg20
F5.9200241371382125
sg21
F0.6848227467154466
sg22
F5.9294194366486765
sg23
F0.47712125471966244
sg24
F11.80892834963693
sg25
F5.27655830333638
sg26
F8.299874683220379
sg27
F5.395408525506365
sg28
F147.8671806420119
sg29
F6.304239701993929
ssS'SUNDE MARTIN'
p52
(dp53
g3
F3.422917980767662
sg4
F0.5703788119884583
sg5
F0.006028570195606236
sg6
F5.733117634778405
sg7
F0.1277865794811262
sg8
F0.0
sg9
F48.43188834358452
sg10
I00
sg11
F0.0
sg12
F1026.6025190764374
sg13
F6.6547854086235345
sg14
F1.5797835966168101
sg15
F94.53131553481954
sg16
F4.463526720133408
sg17
F3.4092566520389096
sg18
F1.591064607026499
sg19
F5.0458039575842975
sg20
F5.678019154323422
sg21
F0.5698886713846618
sg22
F5.845098660434502
sg23
F1.146128035678238
sg24
F4.459691101355703
sg25
F5.844428089618344
sg26
F8.043497289315964
sg27
F5.410755307277071
sg28
F94.61261849520535
sg29
F6.188945349238493
ssS'GIBBS DANA R'
p54
(dp55
g3
F2.230448921378274
sg4
F0.0
sg5
F0.0
sg6
F6.494373211030309
sg7
F0.0
sg8
F0.0
sg9
F0.0
sg10
I00
sg11
F0.0
sg12
F0.0
sg13
F0.0
sg14
F0.0
sg15
F0.0
sg16
F0.0
sg17
F1.380211241711606
sg18
F1.1139433523068367
sg19
F0.0
sg20
F5.664560185127725
sg21
F0.0
sg22
F0.0
sg23
F0.0
sg24
F0.0
sg25
F0.0
sg26
F0.0
sg27
F0.0
sg28
F0.0
sg29
F5.985212193237032
ssS'COLWELL WESLEY'
p56
(dp57
g3
F3.245265839457461
sg4
F0.7125520552675518
sg5
F0.05557661315221043
sg6
F5.732696135858156
sg7
F0.10551018476997394
sg8
F4.217878578027433
sg9
F58.50891862571508
sg10
I01
sg11
F5.158552454379862
sg12
F111.07706038119814
sg13
F6.733953909791388
sg14
F2.3820170425748683
sg15
F9.608593094721543
sg16
F6.753395957186587
sg17
F3.0542299098633974
sg18
F1.6127838567197355
sg19
F5.007496001944319
sg20
F0.0
sg21
F0.5340130613623396
sg22
F6.079181607959542
sg23
F1.0791812460476249
sg24
F5.061246575641567
sg25
F5.844006590521826
sg26
F7.038094192293607
sg27
F5.460210542868391
sg28
F12.821077335462133
sg29
F6.173286814890568
ssS'MULLER MARK S'
p58
(dp59
g3
F2.1367205671564067
sg4
F0.7300616961419176
sg5
F0.03672280702473984
sg6
F6.246861914994016
sg7
F0.0
sg8
F0.0
sg9
F0.0
sg10
I00
sg11
F5.856729494408167
sg12
F177.14961040380166
sg13
F0.0
sg14
F1.1139433523068367
sg15
F22.370917702140144
sg16
F0.0
sg17
F2.060697840353612
sg18
F1.2304489213782739
sg19
F2.976808337338066
sg20
F6.236926541303474
sg21
F0.8215228937420289
sg22
F6.041393079971211
sg23
F0.0
sg24
F0.0
sg25
F5.556940203960929
sg26
F7.559788496027267
sg27
F5.400805563586079
sg28
F19.880334737213346
sg29
F6.505430957366653
ssS'JACKSON CHARLENE R'
p60
(dp61
g3
F2.413299764081252
sg4
F0.27099936227494864
sg5
F0.04016672956106006
sg6
F5.83177585809531
sg7
F0.12687323638549966
sg8
F4.007833092701319
sg9
F45.25217196577732
sg10
I00
sg11
F0.0
sg12
F142.93644450299692
sg13
F6.210723416219212
sg14
F1.414973347970818
sg15
F13.591604669354103
sg16
F2.135985255799159
sg17
F2.0718820073061255
sg18
F1.7558748556724915
sg19
F3.3866772839608377
sg20
F0.0
sg21
F0.5459303090547873
sg22
F5.397941745846491
sg23
F1.3010299956639813
sg24
F4.302958800514856
sg25
F5.732934682422322
sg26
F6.754968496470025
sg27
F5.4602346242672155
sg28
F6.74686152535732
sg29
F5.741289510771347
ssS'WESTFAHL RICHARD K'
p62
(dp63
g3
F0.0
sg4
F0.0
sg5
F0.0
sg6
F5.474072581173467
sg7
F0.0
sg8
F4.714924620661709
sg9
F0.0
sg10
I00
sg11
F4.033463966077405
sg12
F0.0
sg13
F0.0
sg14
F0.0
sg15
F0.0
sg16
F0.0
sg17
F0.0
sg18
F0.0
sg19
F5.603286226201792
sg20
F5.408565564088993
sg21
F0.8474915911266235
sg22
F0.0
sg23
F0.0
sg24
F0.0
sg25
F5.5853828879374205
sg26
F0.0
sg27
F4.80444612545784
sg28
F0.0
sg29
F5.882032476299388
ssS'WALLS JR ROBERT H'
p64
(dp65
g3
F2.8273692730538253
sg4
F0.5289611073400576
sg5
F0.010865918066519261
sg6
F6.86438883222717
sg7
F0.0
sg8
F4.70703336304981
sg9
F0.0
sg10
I00
sg11
F0.0
sg12
F575.6511555951436
sg13
F0.0
sg14
F1.255272505103306
sg15
F114.44260272140934
sg16
F0.0
sg17
F2.3344537511509307
sg18
F2.167317334748176
sg19
F0.47712125471966244
sg20
F5.732998134375313
sg21
F1.243523944490048
sg22
F5.9294194366486765
sg23
F0.0
sg24
F0.0
sg25
F6.191018740673329
sg26
F7.851251655063311
sg27
F5.55278012071988
sg28
F48.680756112999354
sg29
F6.254978291593961
ssS'KITCHEN LOUISE'
p66
(dp67
g3
F3.9193919267738595
sg4
F1.0941386462142666
sg5
F0.01293113911207712
sg6
F5.676476962999974
sg7
F0.0462096451896521
sg8
F3.761551988564182
sg9
F141.53911707449763
sg10
I00
sg11
F0.0
sg12
F505.79243822074795
sg13
F7.490214277612622
sg14
F2.401400540781544
sg15
F37.07227426200913
sg16
F23.67771147611584
sg17
F3.5646660642520893
sg18
F3.2377949932739227
sg19
F4.972785827554107
sg20
F0.0
sg21
F0.4793867356831162
sg22
F6.491361833929244
sg23
F2.290034611362518
sg24
F10.374170451117575
sg25
F5.6684809664535045
sg26
F8.06013817444113
sg27
F5.433678646505341
sg28
F84.6127040109242
sg29
F6.540472380469164
ssS'SHANKMAN JEFFREY A'
p68
(dp69
g3
F3.5081255360831993
sg4
F0.8794725075875807
sg5
F0.012492807921100586
sg6
F6.400834323242133
sg7
F0.013241224719281245
sg8
F5.252804503745707
sg9
F489.58373504351107
sg10
I00
sg11
F0.0
sg12
F518.9136257883863
sg13
F7.991906837726593
sg14
F1.9777236052888478
sg15
F71.46849960286237
sg16
F66.41927210154016
sg17
F3.238297067875394
sg18
F3.42845877351558
sg19
F3.076276255404218
sg20
F5.743841238497493
sg21
F0.892842237947813
sg22
F6.301030212811168
sg23
F1.9242792860618816
sg24
F67.4289770679368
sg25
F5.799435670208201
sg26
F8.017550987086079
sg27
F5.483032129295402
sg28
F70.39830542036391
sg29
F6.482688254616178
ssS'BERGSIEKER RICHARD P'
p70
(dp71
g3
F2.584331224367531
sg4
F0.36741913763774164
sg5
F0.004512191050288683
sg6
F5.7077396945493595
sg7
F0.0
sg8
F4.772145605693852
sg9
F0.0
sg10
I00
sg11
F5.686470025979895
sg12
F1283.541860817955
sg13
F0.0
sg14
F0.6989700043360189
sg15
F144.93922079403333
sg16
F0.0
sg17
F2.369215857410143
sg18
F1.7781512503836436
sg19
F5.630750170746826
sg20
F5.255877682785515
sg21
F0.6539934549026527
sg22
F5.397941745846491
sg23
F0.0
sg24
F0.0
sg25
F5.819050138465472
sg26
F7.772724185247494
sg27
F5.273979936895593
sg28
F81.42809857624151
sg29
F5.79158609705366
ssS'BIBI PHILIPPE A'
p72
(dp73
g3
F3.2062860444124324
sg4
F0.7544324383668048
sg5
F0.006171727640613314
sg6
F6.372026211432379
sg7
F0.07918124604762482
sg8
F4.586137025230793
sg9
F79.70629616619921
sg10
I00
sg11
F0.0
sg12
F1022.6056974305327
sg13
F7.01021368293674
sg14
F1.380211241711606
sg15
F159.38410954153446
sg16
F9.527918238531376
sg17
F3.1261314072619846
sg18
F1.6127838567197355
sg19
F5.62909242795251
sg20
F5.567875293673811
sg21
F0.9836753143320285
sg22
F6.0000004342942646
sg23
F0.9542425094393249
sg24
F12.423084548838514
sg25
F5.577587150326901
sg26
F8.155531679962131
sg27
F5.32965410869996
sg28
F122.24007316885313
sg29
F6.311243848280674
ssS'PIRO JIM'
p74
(dp75
g3
F1.7708520116421442
sg4
F0.0
sg5
F0.0
sg6
F4.563599092527331
sg7
F0.02632893872234915
sg8
F0.0
sg9
F0.0
sg10
I00
sg11
F0.0
sg12
F0.0
sg13
F0.0
sg14
F0.0
sg15
F0.0
sg16
F0.0
sg17
F0.6020599913279624
sg18
F1.2304489213782739
sg19
F0.0
sg20
F0.0
sg21
F0.0
sg22
F0.0
sg23
F0.3010299956639812
sg24
F0.0
sg25
F4.674907046819129
sg26
F0.0
sg27
F0.0
sg28
F0.0
sg29
F0.0
ssS'RIEKER PAULA H'
p76
(dp77
g3
F3.123524980942732
sg4
F0.580808406344063
sg5
F0.011297780802674864
sg6
F6.401510137521629
sg7
F0.2001294999231201
sg8
F4.522078907356877
sg9
F30.185642822892063
sg10
I01
sg11
F5.000004342923105
sg12
F534.7101088713839
sg13
F6.273610054174487
sg14
F1.5563025007672873
sg15
F83.16032514430383
sg16
F2.902162882369571
sg17
F3.1000257301078626
sg18
F1.919078092376074
sg19
F3.2902572693945182
sg20
F0.0
sg21
F0.9395271249595155
sg22
F5.845098660434502
sg23
F1.6901960800285136
sg24
F4.694595875772615
sg25
F5.452782787900721
sg26
F7.62016724896274
sg27
F5.396551523482631
sg28
F51.409070196029184
sg29
F6.041037603003308
ssS'BECK SALLY W'
p78
(dp79
g3
F3.8642736968043794
sg4
F0.604871634828632
sg5
F0.008466276690600015
sg6
F4.989157414638132
sg7
F0.0369794846531972
sg8
F4.570227611697569
sg9
F161.8831294455659
sg10
I00
sg11
F0.0
sg12
F707.0823361573339
sg13
F7.0375568173092535
sg14
F2.161368002234975
sg15
F22.30854750550094
sg16
F16.35695144216499
sg17
F3.4216039268698313
sg18
F3.6378898165807905
sg19
F2.7535830588929064
sg20
F0.0
sg21
F0.1888703357469657
sg22
F5.845098660434502
sg23
F2.5877109650189114
sg24
F5.107435582681552
sg25
F5.100467044280698
sg26
F7.692206099975508
sg27
F5.364233835221208
sg28
F71.44482243300793
sg29
F5.98635470094384
ssS'HAUG DAVID L'
p80
(dp81
g3
F2.7589118923979736
sg4
F0.0
sg5
F0.003021191188341425
sg6
F6.234513877847829
sg7
F0.136219747017989
sg8
F2.677606952720493
sg9
F19.65652566046017
sg10
I00
sg11
F0.0
sg12
F886.2752423789661
sg13
F3.1106858889026547
sg14
F0.6989700043360189
sg15
F0.0
sg16
F0.0
sg17
F2.673941998634088
sg18
F1.3010299956639813
sg19
F0.0
sg20
F0.0
sg21
F0.0
sg22
F0.0
sg23
F0.9030899869919435
sg24
F0.0
sg25
F6.345824456998199
sg26
F4.8327946227945136
sg27
F0.0
sg28
F0.0
sg29
F2.677606952720493
ssS'ECHOLS JOHN B'
p82
(dp83
g3
F0.0
sg4
F0.3216861912562667
sg5
F0.0
sg6
F6.065100730273993
sg7
F0.0
sg8
F4.333064200951979
sg9
F0.0
sg10
I00
sg11
F0.0
sg12
F0.0
sg13
F0.0
sg14
F0.0
sg15
F0.0
sg16
F0.0
sg17
F0.0
sg18
F0.0
sg19
F4.730588495125402
sg20
F6.349233804346093
sg21
F0.8153239584884033
sg22
F5.301032167130962
sg23
F0.0
sg24
F0.0
sg25
F5.610131876068392
sg26
F0.0
sg27
F5.260658005044928
sg28
F0.0
sg29
F6.430127483927563
ssS'HICKERSON GARY J'
p84
(dp85
g3
F3.1209028176145273
sg4
F0.9555383821248539
sg5
F0.012964977164367635
sg6
F5.533223755320218
sg7
F0.015794267183231885
sg8
F4.994976673649691
sg9
F400.04631459337907
sg10
I00
sg11
F0.0
sg12
F487.34666465286034
sg13
F7.749801941625303
sg14
F1.6127838567197355
sg15
F37.711958168413005
sg16
F60.499064061630484
sg17
F2.954724790979063
sg18
F1.4471580313422192
sg19
F3.287129620719111
sg20
F4.840256690706976
sg21
F0.48893467647706207
sg22
F6.230449176845541
sg23
F0.3010299956639812
sg24
F30.956464823904184
sg25
F5.644534104053909
sg26
F7.836952115939386
sg27
F5.325903399759379
sg28
F73.70150907407789
sg29
F6.318438378355066
ssS'LEWIS RICHARD'
p86
(dp87
g3
F2.979092900638326
sg4
F0.0
sg5
F0.0045381236533386
sg6
F6.0780206232593565
sg7
F0.0
sg8
F0.0
sg9
F0.0
sg10
I00
sg11
F0.0
sg12
F0.0
sg13
F0.0
sg14
F1.0413926851582251
sg15
F0.0
sg16
F0.0
sg17
F2.8692317197309762
sg18
F1.4313637641589874
sg19
F0.0
sg20
F0.0
sg21
F0.0
sg22
F0.0
sg23
F0.0
sg24
F0.0
sg25
F0.0
sg26
F0.0
sg27
F0.0
sg28
F0.0
sg29
F0.0
ssS'HAYES ROBERT E'
p88
(dp89
g3
F2.7032913781186614
sg4
F0.0
sg5
F0.013572807189273822
sg6
F5.068870575236227
sg7
F0.0
sg8
F0.0
sg9
F0.0
sg10
I00
sg11
F0.0
sg12
F287.41454283170975
sg13
F0.0
sg14
F1.2304489213782739
sg15
F0.0
sg16
F0.0
sg17
F1.7075701760979363
sg18
F1.1139433523068367
sg19
F0.0
sg20
F0.0
sg21
F0.0
sg22
F0.0
sg23
F0.0
sg24
F0.0
sg25
F5.180180373693981
sg26
F5.399279909538762
sg27
F0.0
sg28
F0.0
sg29
F3.901022173248079
ssS'KOPPER MICHAEL J'
p90
(dp91
g3
F0.0
sg4
F0.6595903380867651
sg5
F0.0
sg6
F5.882140272653872
sg7
F0.0
sg8
F5.072378585631614
sg9
F0.0
sg10
I01
sg11
F0.0
sg12
F0.0
sg13
F0.0
sg14
F0.0
sg15
F0.0
sg16
F0.0
sg17
F0.0
sg18
F0.0
sg19
F5.957848069390015
sg20
F5.780081014716676
sg21
F0.7317083858532227
sg22
F5.903090529859707
sg23
F0.0
sg24
F0.0
sg25
F5.993450780221301
sg26
F0.0
sg27
F5.350840890756575
sg28
F0.0
sg29
F6.42367389369728
ssS'LEFF DANIEL P'
p92
(dp93
g3
F3.450710878146919
sg4
F0.6677350512363928
sg5
F0.01019053242586795
sg6
F5.445629919506074
sg7
F0.0871501757189002
sg8
F0.0
sg9
F73.72987487701975
sg10
I00
sg11
F0.0
sg12
F630.5432614054525
sg13
F7.078783938255
sg14
F1.8325089127062364
sg15
F35.810604596049956
sg16
F7.6618899012911745
sg17
F3.426998958756537
sg18
F1.806179973983887
sg19
F3.4891143693789193
sg20
F6.142201690163513
sg21
F0.3649291273259829
sg22
F6.0000004342942646
sg23
F1.1760912590556813
sg24
F4.187359627398215
sg25
F5.556940203960929
sg26
F8.050053598843002
sg27
F5.437349368430513
sg28
F65.52504062902486
sg29
F6.425571551264796
ssS'LAVORATO JOHN J'
p94
(dp95
g3
F3.8609366207000937
sg4
F1.390560472885517
sg5
F0.030493378292850377
sg6
F6.821695492092532
sg7
F0.06408126159746756
sg8
F4.6949384688122455
sg9
F109.51887439516453
sg10
I00
sg11
F0.0
sg12
F230.15185698930017
sg13
F7.8167263304977554
sg14
F2.7234556720351857
sg15
F39.69064263959844
sg16
F21.699954685980632
sg17
F3.59802407233419
sg18
F3.4126285205443754
sg19
F3.1911714557285586
sg20
F6.308645716121411
sg21
F1.2103017806956127
sg22
F6.903090041278751
sg23
F2.6148972160331345
sg24
F18.88698428408349
sg25
F6.003525154456461
sg26
F8.156350475220238
sg27
F5.5305697797254565
sg28
F45.60204709136981
sg29
F7.01810763997673
ssS'BERBERIAN DAVID'
p96
(dp97
g3
F0.0
sg4
F0.0
sg5
F0.0
sg6
F6.471079970145368
sg7
F0.0
sg8
F4.075291418883302
sg9
F0.0
sg10
I00
sg11
F0.0
sg12
F0.0
sg13
F0.0
sg14
F0.0
sg15
F0.0
sg16
F0.0
sg17
F0.0
sg18
F0.0
sg19
F0.0
sg20
F0.0
sg21
F1.0973786606206195
sg22
F0.0
sg23
F0.0
sg24
F0.0
sg25
F5.939130210140375
sg26
F0.0
sg27
F5.335624365050439
sg28
F0.0
sg29
F5.358838685998698
ssS'DETMERING TIMOTHY J'
p98
(dp99
g3
F0.0
sg4
F0.47986345471833985
sg5
F0.0
sg6
F6.455396878931909
sg7
F0.0
sg8
F4.718136163056574
sg9
F0.0
sg10
I00
sg11
F5.889437293292103
sg12
F0.0
sg13
F0.0
sg14
F0.0
sg15
F0.0
sg16
F0.0
sg17
F0.0
sg18
F0.0
sg19
F3.0437551269686796
sg20
F5.618736143607118
sg21
F1.0266788062211933
sg22
F5.628389951918479
sg23
F0.0
sg24
F0.0
sg25
F5.49840567454422
sg26
F0.0
sg27
F5.32325416332347
sg28
F0.0
sg29
F6.0808370903156685
ssS'POWERS WILLIAM'
p100
(dp101
g3
F2.815577748324267
sg4
F0.0
sg5
F0.0
sg6
F0.0
sg7
F0.0
sg8
F0.0
sg9
F0.0
sg10
I00
sg11
F4.2430628648048065
sg12
F0.0
sg13
F0.0
sg14
F0.0
sg15
F0.0
sg16
F0.0
sg17
F1.1139433523068367
sg18
F1.4313637641589874
sg19
F0.0
sg20
F0.0
sg21
F0.0
sg22
F0.0
sg23
F0.0
sg24
F0.0
sg25
F0.0
sg26
F0.0
sg27
F0.0
sg28
F0.0
sg29
F0.0
ssS'GOLD JOSEPH'
p102
(dp103
g3
F0.0
sg4
F0.5738529806904483
sg5
F0.0
sg6
F5.9802921767090575
sg7
F0.0
sg8
F0.0
sg9
F0.0
sg10
I00
sg11
F0.0
sg12
F0.0
sg13
F0.0
sg14
F0.0
sg15
F0.0
sg16
F0.0
sg17
F0.0
sg18
F0.0
sg19
F5.913437123941086
sg20
F5.484023511687393
sg21
F0.6249115192427614
sg22
F5.875061842450624
sg23
F0.0
sg24
F0.0
sg25
F5.644534104053909
sg26
F0.0
sg27
F5.435973297918273
sg28
F0.0
sg29
F6.331826785132615
ssS'MCDONALD REBECCA'
p104
(dp105
g3
F2.951823035315912
sg4
F0.0
sg5
F0.025470818542148596
sg6
F6.252503502880383
sg7
F0.032184683371401235
sg8
F0.0
sg9
F0.0
sg10
I00
sg11
F0.0
sg12
F0.0
sg13
F0.0
sg14
F1.7403626894942439
sg15
F0.0
sg16
F0.0
sg17
F2.857935264719429
sg18
F1.146128035678238
sg19
F0.0
sg20
F0.0
sg21
F0.0
sg22
F0.0
sg23
F0.3010299956639812
sg24
F0.0
sg25
F5.970377564049279
sg26
F0.0
sg27
F0.0
sg28
F0.0
sg29
F0.0
ssS'SHAPIRO RICHARD S'
p106
(dp107
g3
F4.1804126328383235
sg4
F0.5334764624681556
sg5
F0.0021162817894361976
sg6
F6.060241010400485
sg7
F0.02263369171353741
sg8
F5.139148353730498
sg9
F266.1651742528325
sg10
I00
sg11
F0.0
sg12
F2846.6438302261818
sg13
F7.295963031518081
sg14
F1.8750612633917
sg15
F316.1872410821132
sg16
F23.57001540977421
sg17
F3.6559064181802152
sg18
F3.084933574936716
sg19
F2.8488047010518036
sg20
F0.0
sg21
F0.6691413003541489
sg22
F5.812914024787698
sg23
F1.8195439355418688
sg24
F29.563948684249752
sg25
F5.578828241618559
sg26
F8.335452336121842
sg27
F5.429876576990886
sg28
F252.08196050785847
sg29
F6.024300498918576
ssS'SHERRIFF JOHN R'
p108
(dp109
g3
F3.5035183127240748
sg4
F0.6530481741453147
sg5
F0.003798913786508181
sg6
F6.554368065092138
sg7
F0.09691001300805642
sg8
F0.0
sg9
F68.48650480322036
sg10
I00
sg11
F0.0
sg12
F1747.0857314340135
sg13
F7.239087987553648
sg14
F1.462397997898956
sg15
F241.89608500341566
sg16
F6.738706908346249
sg17
F3.3230457354817013
sg18
F1.968482948553935
sg19
F6.267684831680835
sg20
F5.743841238497493
sg21
F0.9189423722218306
sg22
F6.176091548585239
sg23
F1.380211241711606
sg24
F9.482429562210834
sg25
F6.1117412509648315
sg26
F8.693252004193724
sg27
F5.632235532799512
sg28
F171.90392065874494
sg29
F6.637028071356403
ssS'SHELBY REX'
p110
(dp111
g3
F2.3541084391474008
sg4
F0.2887165751864891
sg5
F0.024394438945149442
sg6
F6.471079970145368
sg7
F0.13321126257428986
sg8
F4.359550916763318
sg9
F47.3073589224733
sg10
I01
sg11
F3.619927710291468
sg12
F258.3323611290032
sg13
F6.746809443538989
sg14
F1.146128035678238
sg15
F45.347423307790976
sg16
F2.1673585972167806
sg17
F1.9637878273455553
sg18
F1.6020599913279623
sg19
F6.196818443619764
sg20
F0.0
sg21
F1.1062249492017537
sg22
F5.301032167130962
sg23
F1.1760912590556813
sg24
F8.304289951345737
sg25
F5.939130210140375
sg26
F7.540111972718055
sg27
F5.3260182181692715
sg28
F11.835343941939566
sg29
F6.301873011117765
ssS'DEFFNER JOSEPH M'
p112
(dp113
g3
F2.8543060418010806
sg4
F0.5922779941844686
sg5
F0.0648563187740992
sg6
F5.127820880148047
sg7
F0.022862882959504165
sg8
F4.6193751130152165
sg9
F266.0338404021538
sg10
I00
sg11
F0.0
sg12
F93.78115612091848
sg13
F7.349471944885587
sg14
F2.0644579892269186
sg15
F3.832555999563079
sg16
F25.90565657155048
sg17
F2.7427251313046983
sg18
F1.8750612633917
sg19
F4.407458890457392
sg20
F5.52549831067667
sg21
F0.24856547362724946
sg22
F5.7781519742071765
sg23
F0.6989700043360189
sg24
F10.87200918919633
sg25
F5.151780351033312
sg26
F6.87530062635634
sg27
F5.3141243477651186
sg28
F9.132155592231959
sg29
F6.0823005563818535
ssS'KISHKILL JOSEPH G'
p114
(dp115
g3
F0.0
sg4
F0.0
sg5
F0.0
sg6
F5.903355745459775
sg7
F0.0
sg8
F5.06571412729979
sg9
F0.0
sg10
I00
sg11
F4.707936191676216
sg12
F0.0
sg13
F0.0
sg14
F0.0
sg15
F0.0
sg16
F0.0
sg17
F0.0
sg18
F0.0
sg19
F5.667787184298068
sg20
F0.0
sg21
F0.8411168980099973
sg22
F0.0
sg23
F0.0
sg24
F0.0
sg25
F6.01466625916812
sg26
F0.0
sg27
F5.241165309612736
sg28
F0.0
sg29
F5.848125662240143
ssS'WHALLEY LAWRENCE G'
p116
(dp117
g3
F3.7795964912578244
sg4
F0.8374721195001187
sg5
F0.01321744250995877
sg6
F6.831472138819579
sg7
F0.018353201980879794
sg8
F4.762220775672432
sg9
F363.4254538598938
sg10
I00
sg11
F0.0
sg12
F504.63777350708875
sg13
F8.034884220715652
sg14
F2.271841606536499
sg15
F84.053514499052
sg16
F45.63084525373773
sg17
F3.5933968423002067
sg18
F2.745855195173729
sg19
F5.478605450494602
sg20
F5.907597830867377
sg21
F1.1109724956512057
sg22
F6.477121399484465
sg23
F1.3979400086720377
sg24
F60.53289757332847
sg25
F6.446564814411695
sg26
F8.180032068813473
sg27
F5.7078808835264665
sg28
F63.36113199426589
sg29
F6.670020759683541
ssS'HAYSLETT RODERICK J'
p118
(dp119
g3
F3.423245873936808
sg4
F0.0
sg5
F0.005700553199723464
sg6
F5.428598473459703
sg7
F0.015282308522149882
sg8
F0.0
sg9
F0.0
sg10
I00
sg11
F0.0
sg12
F0.0
sg13
F0.0
sg14
F1.5563025007672873
sg15
F0.0
sg16
F0.0
sg17
F2.7573960287930244
sg18
F3.0261245167454502
sg19
F0.0
sg20
F0.0
sg21
F0.0
sg22
F0.0
sg23
F1.591064607026499
sg24
F0.0
sg25
F5.539908743839485
sg26
F0.0
sg27
F0.0
sg28
F0.0
sg29
F0.0
ssS'MCCONNELL MICHAEL S'
p120
(dp121
g3
F3.5224442335063197
sg4
F0.6035108131972996
sg5
F0.011839279028395173
sg6
F6.535035078608384
sg7
F0.029688600790539116
sg8
F4.910437628775161
sg9
F212.9605749711512
sg10
I00
sg11
F0.0
sg12
F534.0275771251255
sg13
F7.472767022915197
sg14
F1.968482948553935
sg15
F82.56670008555817
sg16
F20.328031538273798
sg17
F3.3404441148401185
sg18
F3.4382258076045296
sg19
F2.7331972651065692
sg20
F5.743841238497493
sg21
F0.9775302007667428
sg22
F6.041393079971211
sg23
F2.290034611362518
sg24
F32.926112202574835
sg25
F6.169753763423473
sg26
F7.881027261292278
sg27
F5.562339266045459
sg28
F50.97530109306885
sg29
F6.322501494442184
ssS'DELAINEY DAVID W'
p122
(dp123
g3
F3.490520309363349
sg4
F0.9645193388269838
sg5
F0.009169705901969928
sg6
F6.628191042321954
sg7
F0.0786148364702361
sg8
F4.9353812920799855
sg9
F84.92683036271207
sg10
I01
sg11
F0.0
sg12
F728.1050180099862
sg13
F7.378888403380519
sg14
F1.8260748027008264
sg15
F113.12614162061092
sg16
F12.268922535915404
sg17
F3.3218054838575393
sg18
F3.4871383754771865
sg19
F3.220631019448092
sg20
F6.1122637318497
sg21
F1.0373334484856018
sg22
F6.477121399484465
sg23
F2.785329835010767
sg24
F13.195135868257395
sg25
F6.121608752905696
sg26
F8.347344775843895
sg27
F5.562487955685924
sg28
F105.18541697392673
sg29
F6.676508880900091
ssS'SULLIVAN-SHAKLOVITZ COLLEEN'
p124
(dp125
g3
F0.0
sg4
F0.20799227945138263
sg5
F0.0
sg6
F6.282654579300623
sg7
F0.0
sg8
F0.0
sg9
F0.0
sg10
I00
sg11
F0.0
sg12
F0.0
sg13
F0.0
sg14
F0.0
sg15
F0.0
sg16
F0.0
sg17
F0.0
sg18
F0.0
sg19
F2.2121876044039577
sg20
F5.743841238497493
sg21
F0.9717153219388845
sg22
F5.000004342923105
sg23
F0.0
sg24
F0.0
sg25
F0.0
sg26
F0.0
sg27
F5.211601044145239
sg28
F0.0
sg29
F5.999720658830323
ssS'LINDHOLM TOD A'
p126
(dp127
g3
F0.0
sg4
F0.26618928794023516
sg5
F0.0
sg6
F6.600528731186803
sg7
F0.0
sg8
F4.761386511525829
sg9
F0.0
sg10
I00
sg11
F0.0
sg12
F0.0
sg13
F0.0
sg14
F0.0
sg15
F0.0
sg16
F0.0
sg17
F0.0
sg18
F0.0
sg19
F3.420120848085703
sg20
F5.243040530361958
sg21
F1.1448492727179367
sg22
F5.301032167130962
sg23
F0.0
sg24
F0.0
sg25
F5.711679030002636
sg26
F0.0
sg27
F5.373754011931827
sg28
F0.0
sg29
F5.942449568048596
ssS'BUTTS ROBERT H'
p128
(dp129
g3
F0.0
sg4
F0.5874744918608147
sg5
F0.0
sg6
F5.5094709564764965
sg7
F0.0
sg8
F3.9736357734174073
sg9
F0.0
sg10
I00
sg11
F4.8750670539461884
sg12
F0.0
sg13
F0.0
sg14
F0.0
sg15
F0.0
sg16
F0.0
sg17
F0.0
sg18
F0.0
sg19
F5.177989315171319
sg20
F5.243040530361958
sg21
F0.4144578480052791
sg22
F5.875061842450624
sg23
F0.0
sg24
F0.0
sg25
F5.620781289040301
sg26
F0.0
sg27
F5.417499925578895
sg28
F0.0
sg29
F6.104344713127963
ssS'OLSON CINDY K'
p130
(dp131
g3
F3.0737183503461227
sg4
F0.5157539891501277
sg5
F0.007274784534904772
sg6
F6.484886977685157
sg7
F0.11007145906602722
sg8
F4.804766218318319
sg9
F55.61011255745958
sg10
I00
sg11
F0.0
sg12
F841.4113433403159
sg13
F6.660998078776662
sg14
F1.3222192947339193
sg15
F130.6476745136943
sg16
F4.685628713622744
sg17
F2.932980821923198
sg18
F1.724275869600789
sg19
F2.988112840268352
sg20
F5.000004342923105
sg21
F0.9504336820734958
sg22
F5.875061842450624
sg23
F1.2041199826559248
sg24
F8.634696860912607
sg25
F5.986650831345868
sg26
F7.893407611676348
sg27
F5.517300168909039
sg28
F70.8961188713583
sg29
F6.121086228025579
ssS'PICKERING MARK R'
p132
(dp133
g3
F2.9537596917332287
sg4
F0.16375436536244534
sg5
F0.003372242537898981
sg6
F4.607730731198314
sg7
F0.0
sg8
F4.500428598023598
sg9
F0.0
sg10
I00
sg11
F0.0
sg12
F1821.333912921888
sg13
F0.0
sg14
F0.9030899869919435
sg15
F5.540969514507452
sg16
F0.0
sg17
F2.8627275283179747
sg18
F1.8325089127062364
sg19
F0.0
sg20
F0.0
sg21
F0.018685493098023497
sg22
F5.477122702365523
sg23
F0.0
sg24
F0.0
sg25
F0.0
sg26
F8.250157682779815
sg27
F5.816266494971344
sg28
F48.5594863127697
sg29
F6.1419796968731895
ssS'CUMBERLAND MICHAEL S'
p134
(dp135
g3
F0.0
sg4
F0.44054959789637005
sg5
F0.0
sg6
F5.206630101970572
sg7
F0.0
sg8
F4.349180358996378
sg9
F0.0
sg10
I00
sg11
F0.0
sg12
F0.0
sg13
F0.0
sg14
F0.0
sg15
F0.0
sg16
F0.0
sg17
F0.0
sg18
F0.0
sg19
F2.8536982117761744
sg20
F5.4393342730800525
sg21
F0.32728003449861204
sg22
F5.511884697267532
sg23
F0.0
sg24
F0.0
sg25
F5.317940128187742
sg26
F0.0
sg27
F5.266936911159173
sg28
F0.0
sg29
F5.907388247953235
ssS'GAHN ROBERT S'
p136
(dp137
g3
F0.0
sg4
F0.5629423059614452
sg5
F0.0
sg6
F5.4760883547418615
sg7
F0.0
sg8
F4.699672992130208
sg9
F0.0
sg10
I00
sg11
F3.018284308426531
sg12
F0.0
sg13
F0.0
sg14
F0.0
sg15
F0.0
sg16
F0.0
sg17
F0.0
sg18
F0.0
sg19
F4.883933848198085
sg20
F0.0
sg21
F0.4247742447081344
sg22
F5.707460311245491
sg23
F0.0
sg24
F0.0
sg25
F5.371752952492852
sg26
F0.0
sg27
F5.283321585780274
sg28
F0.0
sg29
F5.954525191383293
ssS'HERMANN ROBERT J'
p138
(dp139
g3
F0.0
sg4
F0.5640753797649001
sg5
F0.0
sg6
F5.803332206572966
sg7
F0.0
sg8
F4.6844683309206365
sg9
F0.0
sg10
I00
sg11
F5.447159582391171
sg12
F0.0
sg13
F0.0
sg14
F0.0
sg15
F0.0
sg16
F0.0
sg17
F0.0
sg18
F0.0
sg19
F5.6195545235483895
sg20
F5.176094154342576
sg21
F0.5494551414575055
sg22
F5.845098660434502
sg23
F0.0
sg24
F0.0
sg25
F5.681813585914172
sg26
F0.0
sg27
F5.419400553666477
sg28
F0.0
sg29
F6.113094647112416
ssS'CARTER REBECCA C'
p140
(dp141
g3
F2.4955443375464483
sg4
F0.33160412031187025
sg5
F0.038599784974054974
sg6
F0.0
sg7
F0.16633142176652502
sg8
F0.0
sg9
F34.14283401417462
sg10
I00
sg11
F5.203557750397498
sg12
F147.12584871996873
sg13
F6.01001885874034
sg14
F1.4771212547196624
sg15
F0.0
sg16
F1.9936348573833158
sg17
F2.294466226161593
sg18
F1.2041199826559248
sg19
F2.7331972651065692
sg20
F4.8750670539461884
sg21
F0.0
sg22
F5.477122702365523
sg23
F0.9030899869919435
sg24
F0.0
sg25
F5.487565386765123
sg26
F6.710781895956254
sg27
F5.417986230686384
sg28
F8.590828175202518
sg29
F5.679026124716135
ssS'HORTON STANLEY C'
p142
(dp143
g3
F3.3712526291249394
sg4
F0.0
sg5
F0.008056283798655547
sg6
F6.950161395232705
sg7
F0.006029173396210043
sg8
F0.0
sg9
F1077.3952002769113
sg10
I00
sg11
F0.0
sg12
F806.3025882725209
sg13
F8.350310804892944
sg14
F1.6532125137753437
sg15
F0.0
sg16
F0.0
sg17
F3.031408464251624
sg18
F3.0310042813635367
sg19
F0.0
sg20
F0.0
sg21
F0.0
sg22
F0.0
sg23
F1.2041199826559248
sg24
F0.0
sg25
F6.3109226102555755
sg26
F8.22341752842606
sg27
F0.0
sg28
F0.0
sg29
F6.495802478713944
ssS'BOWEN JR RAYMOND M'
p144
(dp145
g3
F3.2692793897718984
sg4
F0.7668320261930105
sg5
F0.03154977423234054
sg6
F5.290186906937994
sg7
F0.19188552623891317
sg8
F4.818938133030819
sg9
F33.49103339262509
sg10
I01
sg11
F2.921166050637739
sg12
F203.6922521062405
sg13
F6.681716999629027
sg14
F2.1492191126553797
sg15
F8.869490033909212
sg16
F3.9962994667885576
sg17
F3.2024883170600935
sg18
F1.4471580313422192
sg19
F3.2100508498751372
sg20
F5.98869002804
sg21
F0.27983040812583004
sg22
F6.130334090194503
sg23
F1.2041199826559248
sg24
F1.4583195179474782
sg25
F5.40149703994468
sg26
F7.549362090384216
sg27
F5.4449842297686555
sg28
F24.305467942365134
sg29
F6.426444566828879
ssS'FITZGERALD JAY L'
p146
(dp147
g3
F2.971739590887778
sg4
F0.4405009481808176
sg5
F0.00046374214967303195
sg6
F6.22414194357066
sg7
F0.17609125905568124
sg8
F4.377870612780742
sg9
F34.929120773787425
sg10
I00
sg11
F0.0
sg12
F13263.217197532782
sg13
F6.451742696951784
sg14
F0.3010299956639812
sg15
F2072.2066817764135
sg16
F2.5015491997903667
sg17
F2.859738566197147
sg18
F1.2304489213782739
sg19
F5.455476793747243
sg20
F5.7454003903592
sg21
F0.9609695811738144
sg22
F5.54406928518988
sg23
F0.9542425094393249
sg24
F5.4572247726955565
sg25
F5.980810272833412
sg26
F9.121988396877418
sg27
F5.299197756319404
sg28
F949.8833532630129
sg29
F6.150712854764179
ssS'MORAN MICHAEL P'
p148
(dp149
g3
F2.828015064223977
sg4
F0.0
sg5
F0.0
sg6
F5.319833914669486
sg7
F0.0
sg8
F0.0
sg9
F0.0
sg10
I00
sg11
F0.0
sg12
F0.0
sg13
F0.0
sg14
F0.0
sg15
F0.0
sg16
F0.0
sg17
F2.1072099696478683
sg18
F1.3010299956639813
sg19
F0.0
sg20
F0.0
sg21
F0.0
sg22
F0.0
sg23
F0.0
sg24
F0.0
sg25
F5.208449418761292
sg26
F0.0
sg27
F0.0
sg28
F0.0
sg29
F0.0
ssS'REDMOND BRIAN L'
p150
(dp151
g3
F3.2232362731029975
sg4
F0.0
sg5
F0.05002482217034634
sg6
F7.035903620426883
sg7
F0.08697149047387664
sg8
F4.167021795790257
sg9
F58.03501440183451
sg10
I00
sg11
F0.0
sg12
F100.89774402421428
sg13
F5.701584865245326
sg14
F2.311753861055754
sg15
F38.30773879762136
sg16
F0.0
sg17
F3.0269416279590295
sg18
F2.346352974450639
sg19
F0.0
sg20
F0.0
sg21
F1.9163378210990858
sg22
F0.0
sg23
F1.6989700043360187
sg24
F22.03409198413922
sg25
F5.581250859209233
sg26
F5.960734566070344
sg27
F4.986059265406618
sg28
F0.0
sg29
F5.047391702200444
ssS'BAZELIDES PHILIP J'
p152
(dp153
g3
F0.0
sg4
F0.0
sg5
F0.0
sg6
F6.352380407007743
sg7
F0.0
sg8
F0.0
sg9
F0.0
sg10
I00
sg11
F0.0
sg12
F0.0
sg13
F0.0
sg14
F0.0
sg15
F0.0
sg16
F0.0
sg17
F0.0
sg18
F0.0
sg19
F2.942008053022313
sg20
F4.971975908849524
sg21
F1.3179198222058592
sg22
F0.0
sg23
F0.0
sg24
F0.0
sg25
F0.0
sg26
F0.0
sg27
F4.907513472471777
sg28
F0.0
sg29
F5.934567629854511
ssS'BELDEN TIMOTHY N'
p154
(dp155
g3
F3.902655475217926
sg4
F1.4070987877766954
sg5
F0.012217849780941781
sg6
F6.165304773806877
sg7
F0.08747634507850728
sg8
F4.239449641457174
sg9
F77.05501930158862
sg10
I01
sg11
F6.368181785941133
sg12
F551.6921208976619
sg13
F7.391913003289576
sg14
F2.359835482339888
sg15
F64.79921737046193
sg16
F16.085477582698136
sg17
F3.7420964023032446
sg18
F2.6857417386022635
sg19
F5.323662474404909
sg20
F0.0
sg21
F0.7917071037548972
sg22
F6.720159303405957
sg23
F2.037426497940624
sg24
F9.0505279232273
sg25
F5.197473535014777
sg26
F8.285157665435953
sg27
F5.330413773349191
sg28
F115.16746506178052
sg29
F6.7404914584568045
ssS'DURAN WILLIAM D'
p156
(dp157
g3
F2.9566485792052033
sg4
F0.6589361284942967
sg5
F0.048152943307279275
sg6
F6.340321178587404
sg7
F0.09691001300805642
sg8
F4.411383978327984
sg9
F65.22364210164758
sg10
I00
sg11
F0.0
sg12
F131.26557943028095
sg13
F6.922883840227127
sg14
F2.0293837776852097
sg15
F19.602116312608125
sg16
F6.799463832901533
sg17
F2.7781512503836434
sg18
F1.1139433523068367
sg19
F3.1956229435869368
sg20
F6.043448342335886
sg21
F0.9438995955037133
sg22
F5.875061842450624
sg23
F0.6020599913279624
sg24
F9.739959434586435
sg25
F5.27655830333638
sg26
F7.2516863865691645
sg27
F5.323650106980318
sg28
F13.684233677875417
sg29
F6.320824004503484
ssS'THORN TERENCE H'
p158
(dp159
g3
F2.4265112613645754
sg4
F0.0
sg5
F0.0
sg6
F6.816126986618859
sg7
F0.0
sg8
F4.664134061738617
sg9
F0.0
sg10
I00
sg11
F0.0
sg12
F0.0
sg13
F0.0
sg14
F0.0
sg15
F0.0
sg16
F0.0
sg17
F1.8692317197309762
sg18
F1.6232492903979006
sg19
F5.630051391142388
sg20
F5.301032167130962
sg21
F1.3558861009929548
sg22
F0.0
sg23
F0.0
sg24
F0.0
sg25
F5.5626746377798995
sg26
F0.0
sg27
F5.346536825986163
sg28
F0.0
sg29
F5.959734755217785
ssS'FASTOW ANDREW S'
p160
(dp161
g3
F0.0
sg4
F0.5965823507550512
sg5
F0.0
sg6
F6.1426118412582795
sg7
F0.0
sg8
F4.747582695166657
sg9
F0.0
sg10
I01
sg11
F6.141780777173102
sg12
F0.0
sg13
F0.0
sg14
F0.0
sg15
F0.0
sg16
F0.0
sg17
F0.0
sg18
F0.0
sg19
F5.443208208123469
sg20
F6.239563730113934
sg21
F0.7051578220392706
sg22
F6.113943686379387
sg23
F0.0
sg24
F0.0
sg25
F6.253922406923448
sg26
F0.0
sg27
F5.644142065043673
sg28
F0.0
sg29
F6.38454766504227
ssS'FOY JOE'
p162
(dp163
g3
F1.7634279935629373
sg4
F0.0
sg5
F0.0
sg6
F5.68420187396213
sg7
F0.0
sg8
F0.0
sg9
F0.0
sg10
I00
sg11
F0.0
sg12
F0.0
sg13
F0.0
sg14
F0.0
sg15
F0.0
sg16
F0.0
sg17
F0.47712125471966244
sg18
F1.146128035678238
sg19
F0.0
sg20
F0.0
sg21
F0.0
sg22
F0.0
sg23
F0.0
sg24
F0.0
sg25
F0.0
sg26
F0.0
sg27
F0.0
sg28
F0.0
sg29
F5.259488756388743
ssS'CALGER CHRISTOPHER F'
p164
(dp165
g3
F3.4148062795010126
sg4
F0.7926882392576229
sg5
F0.03205331963451812
sg6
F4.989157414638132
sg7
F0.0695242125184239
sg8
F4.554113456986374
sg9
F89.38839699017286
sg10
I01
sg11
F5.419130962193994
sg12
F193.88500098858637
sg13
F6.975080173516358
sg14
F2.3010299956639813
sg15
F5.71498374584932
sg16
F11.401614064273804
sg17
F3.3402457615679317
sg18
F2.161368002234975
sg19
F2.6875289612146345
sg20
F5.574384350338861
sg21
F0.18318420071178393
sg22
F6.096910360443503
sg23
F1.414973347970818
sg24
F2.634825970351554
sg25
F5.100467044280698
sg26
F7.330443734718868
sg27
F5.3805549221542135
sg28
F24.73030089538618
sg29
F6.214657909026021
ssS'RICE KENNETH D'
p166
(dp167
g3
F2.957128197676813
sg4
F0.7126805626103131
sg5
F0.019701399798070073
sg6
F7.476852841837836
sg7
F0.0871501757189002
sg8
F4.67164484665233
sg9
F65.44261314793854
sg10
I01
sg11
F6.544612060590738
sg12
F289.4888329663532
sg13
F6.356547080308834
sg14
F1.6334684555795864
sg15
F88.17269404442527
sg16
F8.177614752138183
sg17
F2.9370161074648142
sg18
F1.2787536009528289
sg19
F5.242640797817615
sg20
F6.208713242859058
sg21
F1.7371254966421343
sg22
F6.243038296854499
sg23
F0.6989700043360189
sg24
F19.932553001902956
sg25
F6.4390744092315355
sg26
F7.036733704158215
sg27
F5.623907471367622
sg28
F36.174107927098994
sg29
F5.703335235346852
ssS'KAMINSKI WINCENTY J'
p168
(dp169
g3
F3.6635124704151556
sg4
F0.38987658222686117
sg5
F0.003847907129594655
sg6
F6.111824684215917
sg7
F0.005138217226126751
sg8
F4.922133542607621
sg9
F1174.7573439189287
sg10
I00
sg11
F0.0
sg12
F1568.6860981177072
sg13
F7.960558235129487
sg14
F1.6232492903979006
sg15
F170.9534621329796
sg16
F75.87779283530891
sg17
F2.7664128471123997
sg18
F4.15742654478045
sg19
F3.6693168805661123
sg20
F5.50982998068034
sg21
F0.6578130457703821
sg22
F5.60206107706281
sg23
F2.2355284469075487
sg24
F128.02359589344366
sg25
F5.100467044280698
sg26
F8.086792380531776
sg27
F5.4394937477353995
sg28
F101.32172349698352
sg29
F6.0361584210431465
ssS'COX DAVID'
p170
(dp171
g3
F2.012837224705172
sg4
F0.5496696542339986
sg5
F0.0
sg6
F5.660884612113137
sg7
F0.04968778418910748
sg8
F4.445012287887958
sg9
F121.59815143448161
sg10
I00
sg11
F4.615434481109406
sg12
F0.0
sg13
F6.958396308302827
sg14
F0.0
sg15
F0.0
sg16
F11.062470649566555
sg17
F1.8573324964312685
sg18
F1.5314789170422551
sg19
F2.694605198933569
sg20
F0.0
sg21
F0.4111148603950292
sg22
F5.903090529859707
sg23
F0.6989700043360189
sg24
F8.273962445786696
sg25
F5.577587150326901
sg26
F0.0
sg27
F5.497329181135617
sg28
F0.0
sg29
F6.041942706270932
ssS'OVERDYKE JR JERE C'
p172
(dp173
g3
F0.0
sg4
F0.0
sg5
F0.0
sg6
F6.953794473772079
sg7
F0.0
sg8
F4.274965624539287
sg9
F0.0
sg10
I00
sg11
F0.0
sg12
F0.0
sg13
F0.0
sg14
F0.0
sg15
F0.0
sg16
F0.0
sg17
F0.0
sg18
F0.0
sg19
F2.247973266361807
sg20
F5.133018081484735
sg21
F1.8919266676900746
sg22
F0.0
sg23
F0.0
sg24
F0.0
sg25
F6.309846622048479
sg26
F0.0
sg27
F4.977458376105905
sg28
F0.0
sg29
F5.3975715707116
ssS'STABLER FRANK'
p174
(dp175
g3
F0.0
sg4
F0.4896302084821188
sg5
F0.0
sg6
F5.597734733023042
sg7
F0.0
sg8
F4.217878578027433
sg9
F0.0
sg10
I00
sg11
F0.0
sg12
F0.0
sg13
F0.0
sg14
F0.0
sg15
F0.0
sg16
F0.0
sg17
F0.0
sg18
F0.0
sg19
F5.551537823930935
sg20
F0.0
sg21
F0.4964672471822589
sg22
F5.698970872924114
sg23
F0.0
sg24
F0.0
sg25
F5.709045121461162
sg26
F0.0
sg27
F5.379310957730898
sg28
F0.0
sg29
F6.046139154514265
ssS'SKILLING JEFFREY K'
p176
(dp177
g3
F3.5596672783880576
sg4
F0.7809890341658337
sg5
F0.010411262516159777
sg6
F7.510345107080149
sg7
F0.10645533091428677
sg8
F4.467415700848101
sg9
F65.17903412154809
sg10
I01
sg11
F0.0
sg12
F666.4566987253658
sg13
F7.49495811072597
sg14
F1.9493900066449128
sg15
F133.3971466115797
sg16
F7.336307420758969
sg17
F3.3102683666324477
sg18
F2.037426497940624
sg19
F4.3448440193371205
sg20
F6.283301454898534
sg21
F1.3888327122798099
sg22
F6.748188104558779
sg23
F1.4913616938342726
sg24
F13.046154667426077
sg25
F6.835289250184032
sg26
F8.55372048070855
sg27
F6.045815291309662
sg28
F75.01386435637622
sg29
F6.9386556460829905
ssS'SHERRICK JEFFREY B'
p178
(dp179
g3
F2.788168371141168
sg4
F0.0
sg5
F0.026787121213505207
sg6
F6.3657766706466985
sg7
F0.2355284469075489
sg8
F0.0
sg9
F0.0
sg10
I00
sg11
F0.0
sg12
F0.0
sg13
F0.0
sg14
F1.6020599913279623
sg15
F0.0
sg16
F0.0
sg17
F2.7664128471123997
sg18
F1.414973347970818
sg19
F0.0
sg20
F0.0
sg21
F0.0
sg22
F0.0
sg23
F1.2787536009528289
sg24
F0.0
sg25
F5.608526033577194
sg26
F0.0
sg27
F0.0
sg28
F0.0
sg29
F0.0
ssS'UMANOFF ADAM S'
p180
(dp181
g3
F2.0492180226701815
sg4
F0.5720726084315793
sg5
F0.0445821326527405
sg6
F0.0
sg7
F0.0
sg8
F4.72528259284069
sg9
F0.0
sg10
I00
sg11
F0.0
sg12
F135.77762229214673
sg13
F0.0
sg14
F1.1139433523068367
sg15
F0.0
sg16
F0.0
sg17
F1.6232492903979006
sg18
F1.2787536009528289
sg19
F0.0
sg20
F0.0
sg21
F0.0
sg22
F5.896939922862912
sg23
F0.0
sg24
F0.0
sg25
F0.0
sg26
F7.019397358399107
sg27
F5.460281278177911
sg28
F12.831880719739717
sg29
F6.053255968302181
ssS'KEAN STEVEN J'
p182
(dp183
g3
F4.105680462945809
sg4
F0.5407270890008588
sg5
F0.00474125322385064
sg6
F6.781246340968313
sg7
F0.02418056542292786
sg8
F4.6227733738682115
sg9
F258.1586820338443
sg10
I00
sg11
F0.0
sg12
F1316.6187515600311
sg13
F7.484594147550193
sg14
F2.1492191126553797
sg15
F255.21217115905054
sg16
F22.36205314240273
sg17
F3.561101383649056
sg18
F3.829946695941636
sg19
F3.090610707828407
sg20
F5.477122702365523
sg21
F1.2100255292737698
sg22
F6.0000004342942646
sg23
F2.5888317255942073
sg24
F50.0412421343312
sg25
F6.616117743175349
sg26
F8.201941031597086
sg27
F5.606745632671607
sg28
F114.04729160652248
sg29
F6.242422900416202
ssS'FOWLER PEGGY'
p184
(dp185
g3
F2.714329759745233
sg4
F0.0
sg5
F0.0
sg6
F6.361250835807165
sg7
F0.0
sg8
F0.0
sg9
F0.0
sg10
I00
sg11
F0.0
sg12
F0.0
sg13
F0.0
sg14
F0.0
sg15
F0.0
sg16
F0.0
sg17
F1.0413926851582251
sg18
F1.568201724066995
sg19
F0.0
sg20
F0.0
sg21
F0.0
sg22
F0.0
sg23
F0.0
sg24
F0.0
sg25
F5.748320621685017
sg26
F0.0
sg27
F0.0
sg28
F0.0
sg29
F0.0
ssS'WASAFF GEORGE'
p186
(dp187
g3
F2.603144372620182
sg4
F0.35218623007125527
sg5
F0.023252459633711444
sg6
F6.4229166844244725
sg7
F0.09108046934733258
sg8
F0.0
sg9
F66.03706453823726
sg10
I00
sg11
F5.765911334230255
sg12
F258.6688430905882
sg13
F6.646709725280566
sg14
F1.3617278360175928
sg15
F40.84949364212458
sg16
F3.8667590603667605
sg17
F2.5289167002776547
sg18
F1.4913616938342726
sg19
F3.154119525515847
sg20
F5.301032167130962
sg21
F0.949851201971054
sg22
F5.511884697267532
sg23
F0.9030899869919435
sg24
F10.428703417730816
sg25
F5.589019729928576
sg26
F7.274323746207032
sg27
F5.414968336851731
sg28
F15.146192515507273
sg29
F6.014686832462742
ssS'WHITE JR THOMAS E'
p188
(dp189
g3
F0.0
sg4
F0.38330017179499015
sg5
F0.0
sg6
F7.0983521903888285
sg7
F0.0
sg8
F4.910378911117011
sg9
F0.0
sg10
I00
sg11
F0.0
sg12
F0.0
sg13
F0.0
sg14
F0.0
sg15
F0.0
sg16
F0.0
sg17
F0.0
sg18
F0.0
sg19
F6.035615424418158
sg20
F0.0
sg21
F1.687453744007427
sg22
F5.65321347887312
sg23
F0.0
sg24
F0.0
sg25
F7.141358044482212
sg26
F0.0
sg27
F5.501803911150013
sg28
F0.0
sg29
F6.286537302975502
ssS'ALLEN PHILLIP K'
p190
(dp191
g3
F3.4628470358316736
sg4
F1.3359174717045121
sg5
F0.006977364450080945
sg6
F6.386288727351573
sg7
F0.012673914569260777
sg8
F4.142045148157744
sg9
F524.8345703995675
sg10
I00
sg11
F6.488699591945622
sg12
F953.3267977942061
sg13
F8.180229582197224
sg14
F1.6812412373755872
sg15
F140.54579063553444
sg16
F105.4068547175343
sg17
F3.1486026548060932
sg18
F3.3416323357780544
sg19
F2.184691430817599
sg20
F5.484023511687393
sg21
F0.9806392031888975
sg22
F6.620656583842239
sg23
F1.8195439355418688
sg24
F77.37461049069503
sg25
F5.100467044280698
sg26
F8.44230796312857
sg27
F5.30525676034425
sg28
F191.4644822213657
sg29
F6.6517085082388
ssS'SHARP VICTORIA T'
p192
(dp193
g3
F3.496514518697745
sg4
F0.53376333925829
sg5
F0.0033110286060030014
sg6
F5.748513463745859
sg7
F0.018749436012838995
sg8
F5.065721593445246
sg9
F330.5537978096705
sg10
I00
sg11
F0.0
sg12
F1871.8344110940966
sg13
F7.553084675495205
sg14
F1.3979400086720377
sg15
F143.72018695733723
sg16
F28.468234398772662
sg17
F3.3941013020400446
sg18
F2.1367205671564067
sg19
F3.3805730030668872
sg20
F5.625476052424051
sg21
F0.47586165027584304
sg22
F5.7781519742071765
sg23
F0.8450980400142568
sg24
F25.38005142927972
sg25
F5.32851007607689
sg26
F8.313861819764226
sg27
F5.394709029114961
sg28
F161.20770998189502
sg29
F6.197697280833336
ssS'BROWN MICHAEL'
p194
(dp195
g3
F3.172310968521954
sg4
F0.0
sg5
F0.0037828234237230183
sg6
F0.0
sg7
F0.010465433678164979
sg8
F4.692750007059422
sg9
F448.4047342300156
sg10
I00
sg11
F0.0
sg12
F1240.541648766905
sg13
F6.305525267416339
sg14
F1.146128035678238
sg15
F0.0
sg16
F0.0
sg17
F2.8819549713396007
sg18
F1.6232492903979006
sg19
F0.0
sg20
F0.0
sg21
F0.0
sg22
F0.0
sg23
F0.3010299956639812
sg24
F0.0
sg25
F0.0
sg26
F6.7508167299876725
sg27
F0.0
sg28
F0.0
sg29
F4.692750007059422
ssS'MCCLELLAN GEORGE'
p196
(dp197
g3
F3.241795431295199
sg4
F0.6450967077800689
sg5
F0.012759851734737144
sg6
F6.02304308672639
sg7
F0.0
sg8
F5.359387681696719
sg9
F0.0
sg10
I00
sg11
F5.096913487350014
sg12
F479.6424919637196
sg13
F0.0
sg14
F1.724275869600789
sg15
F51.92890986819833
sg16
F0.0
sg17
F3.167317334748176
sg18
F1.6989700043360187
sg19
F4.712548691164632
sg20
F0.0
sg21
F0.6626051906647392
sg22
F5.954242991988481
sg23
F0.0
sg24
F0.0
sg25
F5.644534104053909
sg26
F7.645709900598366
sg27
F5.420638853242203
sg28
F50.5567557673003
sg29
F6.120167083136914
ssS'HUGHES JAMES A'
p198
(dp199
g3
F2.8573324964312685
sg4
F0.0
sg5
F0.020642455486891406
sg6
F6.12828730760837
sg7
F0.05958568998424405
sg8
F0.0
sg9
F0.0
sg10
I00
sg11
F0.0
sg12
F0.0
sg13
F0.0
sg14
F1.5563025007672873
sg15
F0.0
sg16
F0.0
sg17
F2.7708520116421442
sg18
F1.5440680443502757
sg19
F0.0
sg20
F0.0
sg21
F0.0
sg22
F0.0
sg23
F0.7781512503836436
sg24
F0.0
sg25
F5.560419579101537
sg26
F0.0
sg27
F0.0
sg28
F0.0
sg29
F0.0
ssS'REYNOLDS LAWRENCE'
p200
(dp201
g3
F0.0
sg4
F0.36340844474622347
sg5
F0.0
sg6
F6.771021397658746
sg7
F0.0
sg8
F3.924795995797912
sg9
F0.0
sg10
I00
sg11
F5.301032167130962
sg12
F0.0
sg13
F0.0
sg14
F0.0
sg15
F0.0
sg16
F0.0
sg17
F0.0
sg18
F0.0
sg19
F5.305465303052724
sg20
F5.1938228054919025
sg21
F1.7502080393684072
sg22
F5.000004342923105
sg23
F0.0
sg24
F0.0
sg25
F5.304240564186287
sg26
F0.0
sg27
F4.88309335857569
sg28
F0.0
sg29
F5.596020585784653
ssS'DIMICHELE RICHARD G'
p202
(dp203
g3
F0.0
sg4
F0.6817249165969745
sg5
F0.0
sg6
F7.065393758606928
sg7
F0.0
sg8
F4.554040702717402
sg9
F0.0
sg10
I00
sg11
F0.0
sg12
F0.0
sg13
F0.0
sg14
F0.0
sg15
F0.0
sg16
F0.0
sg17
F0.0
sg18
F0.0
sg19
F5.5736721024805815
sg20
F5.841899187023183
sg21
F1.5139106089849905
sg22
F6.0000004342942646
sg23
F0.0
sg24
F0.0
sg25
F5.100467044280698
sg26
F0.0
sg27
F5.419607182275551
sg28
F0.0
sg29
F6.374409574166882
ssS'BHATNAGAR SANJAY'
p204
(dp205
g3
F2.7193312869837265
sg4
F0.0
sg5
F0.0
sg6
F6.217331060366909
sg7
F0.014723256820706378
sg8
F0.0
sg9
F488.28227159794824
sg10
I00
sg11
F0.0
sg12
F0.0
sg13
F8.651503256504123
sg14
F0.0
sg15
F0.0
sg16
F0.0
sg17
F2.6665179805548807
sg18
F1.4771212547196624
sg19
F5.139454025159417
sg20
F0.0
sg21
F0.0
sg22
F0.0
sg23
F0.3010299956639812
sg24
F0.0
sg25
F6.415722861036487
sg26
F0.0
sg27
F0.0
sg28
F0.0
sg29
F7.189105285734496
ssS'BUCHANAN HAROLD G'
p206
(dp207
g3
F3.037027879755775
sg4
F0.4794300180892611
sg5
F0.0
sg6
F6.11657429709735
sg7
F0.0
sg8
F2.7788744720027396
sg9
F0.0
sg10
I00
sg11
F0.0
sg12
F0.0
sg13
F0.0
sg14
F0.0
sg15
F0.0
sg16
F0.0
sg17
F1.380211241711606
sg18
F2.100370545117563
sg19
F3.084933574936716
sg20
F5.484023511687393
sg21
F0.7067575046364314
sg22
F5.698970872924114
sg23
F0.0
sg24
F0.0
sg25
F5.27655830333638
sg26
F0.0
sg27
F5.394483201056038
sg28
F0.0
sg29
F6.0231034154811205
ssS'MURRAY JULIA H'
p208
(dp209
g3
F3.341038631677523
sg4
F0.43847293998417997
sg5
F0.00217394733843602
sg6
F5.8549147117973535
sg7
F0.018885344160373813
sg8
F4.760279202930231
sg9
F312.9230932405853
sg10
I00
sg11
F0.0
sg12
F2718.400858701905
sg13
F7.26184231873645
sg14
F1.0791812460476249
sg15
F256.2149586425557
sg16
F23.21763036250121
sg17
F2.597695185925512
sg18
F1.662757831681574
sg19
F2.519827993775719
sg20
F5.096913487350014
sg21
F0.5569978274084789
sg22
F5.60206107706281
sg23
F0.47712125471966244
sg24
F29.493655115759022
sg25
F5.294430952080847
sg26
F8.209107644197312
sg27
F5.360375643782215
sg28
F201.69437052676076
sg29
F5.9096603115771975
ssS'GARLAND C KEVIN'
p210
(dp211
g3
F2.322219294733919
sg4
F0.6688186983034975
sg5
F0.020297828729064347
sg6
F6.039998467322737
sg7
F0.2078056722328879
sg8
F4.684899196466526
sg9
F29.811130829159048
sg10
I00
sg11
F0.0
sg12
F305.20121953268284
sg13
F6.407010887186133
sg14
F1.0413926851582251
sg15
F33.84403012140556
sg16
F3.2184814356460496
sg17
F2.2528530309798933
sg18
F1.6532125137753437
sg19
F4.784010711078213
sg20
F5.574384350338861
sg21
F0.686960326905585
sg22
F5.9294194366486765
sg23
F1.4471580313422192
sg24
F3.3057823664009915
sg25
F5.414819647343968
sg26
F7.515068104108157
sg27
F5.365388759730952
sg28
F32.95025823849916
sg29
F6.194922081975965
ssS'DODSON KEITH'
p212
(dp213
g3
F2.247973266361807
sg4
F0.11949929718022491
sg5
F0.024000276403766514
sg6
F0.0
sg7
F0.08432088570003587
sg8
F4.449709755571369
sg9
F65.28716117729573
sg10
I00
sg11
F0.0
sg12
F229.37532729609012
sg13
F6.17407696972647
sg14
F1.0413926851582251
sg15
F0.0
sg16
F1.4171968924203802
sg17
F2.060697840353612
sg18
F1.1760912590556813
sg19
F2.88930170250631
sg20
F0.0
sg21
F0.0
sg22
F4.8451042441768255
sg23
F0.6020599913279624
sg24
F0.0
sg25
F0.0
sg26
F6.750582642832473
sg27
F5.344400134147585
sg28
F4.979080039322844
sg29
F5.505071255310573
ssS'YEAGER F SCOTT'
p214
(dp215
g3
F0.0
sg4
F0.0
sg5
F0.0
sg6
F7.16015327790272
sg7
F0.0
sg8
F4.731975348832385
sg9
F0.0
sg10
I01
sg11
F0.0
sg12
F0.0
sg13
F0.0
sg14
F0.0
sg15
F0.0
sg16
F0.0
sg17
F0.0
sg18
F0.0
sg19
F5.1701179049006
sg20
F0.0
sg21
F1.8809770898440097
sg22
F0.0
sg23
F0.0
sg24
F0.0
sg25
F6.553422648925869
sg26
F0.0
sg27
F5.199766144147375
sg28
F0.0
sg29
F5.5566654674899825
ssS'HIRKO JOSEPH'
p216
(dp217
g3
F0.0
sg4
F0.0
sg5
F0.0
sg6
F7.636429636342035
sg7
F0.0
sg8
F4.891977661510256
sg9
F0.0
sg10
I01
sg11
F0.0
sg12
F0.0
sg13
F0.0
sg14
F0.0
sg15
F0.0
sg16
F0.0
sg17
F0.0
sg18
F0.0
sg19
F3.455910240382743
sg20
F0.0
sg21
F0.0
sg22
F0.0
sg23
F0.0
sg24
F0.0
sg25
F0.0
sg26
F0.0
sg27
F0.0
sg28
F0.0
sg29
F4.959489772662293
ssS'DIETRICH JANET R'
p218
(dp219
g3
F3.4104397862103464
sg4
F0.531356324446987
sg5
F0.048668897638141535
sg6
F6.384717248738918
sg7
F0.0871501757189002
sg8
F3.541079767776629
sg9
F70.56052685027528
sg10
I00
sg11
F0.0
sg12
F126.35096770715526
sg13
F6.802574588110379
sg14
F2.48572142648158
sg15
F19.051902177669806
sg16
F6.097019542001361
sg17
F3.2794387882870204
sg18
F1.806179973983887
sg19
F2.6757783416740852
sg20
F5.7454003903592
sg21
F0.9272350768968977
sg22
F5.7781519742071765
sg23
F1.1760912590556813
sg24
F10.639508976868406
sg25
F5.49840567454422
sg26
F7.075333167329536
sg27
F5.398115428210366
sg28
F10.917780147758393
sg29
F6.149362313819666
ssS'DERRICK JR. JAMES V'
p220
(dp221
g3
F3.338854746252323
sg4
F0.4190925545170645
sg5
F0.012560679760641687
sg6
F7.094412504449354
sg7
F0.009451830771674302
sg8
F4.708633321015398
sg9
F607.410093327826
sg10
I00
sg11
F6.108565361968281
sg12
F457.0721904025525
sg13
F7.3986705278223575
sg14
F1.8129133566428555
sg15
F101.69192349987024
sg16
F44.339828403722706
sg17
F3.14674801363064
sg18
F2.9590413923210934
sg19
F3.8740757452230348
sg20
F5.684846258946134
sg21
F1.2773196853255429
sg22
F5.903090529859707
sg23
F1.3222192947339193
sg24
F135.13992327851187
sg25
F6.252217137038872
sg26
F7.273612337646407
sg27
F5.6922968758563774
sg28
F33.36543582858245
sg29
F5.741137411141505
ssS'FREVERT MARK A'
p222
(dp223
g3
F3.5153438930883807
sg4
F0.46016613278732105
sg5
F0.030961063989140718
sg6
F7.253428963560134
sg7
F0.109144469425068
sg8
F4.93945934579986
sg9
F66.30526360663532
sg10
I00
sg11
F6.527244664212412
sg12
F233.74044312474973
sg13
F7.7809208428051875
sg14
F2.385606273598312
sg15
F37.78115745499942
sg16
F4.216119563467605
sg17
F3.4742162640762553
sg18
F1.3424226808222062
sg19
F6.870849793897668
sg20
F6.208713242859058
sg21
F1.169744833548038
sg22
F6.301030212811168
sg23
F0.8450980400142568
sg24
F10.717399055671933
sg25
F6.6220759389045405
sg26
F8.368248731470151
sg27
F6.025687958218911
sg28
F14.862736401717967
sg29
F7.236852816435483
ssS'PAI LOU L'
p224
(dp225
g3
F0.0
sg4
F0.6829170390748597
sg5
F0.0
sg6
F7.449678678718328
sg7
F0.0
sg8
F4.505800931949501
sg9
F0.0
sg10
I00
sg11
F0.0
sg12
F0.0
sg13
F0.0
sg14
F0.0
sg15
F0.0
sg16
F0.0
sg17
F0.0
sg18
F0.0
sg19
F6.2623224435697615
sg20
F0.0
sg21
F1.9635523639197587
sg22
F6.0000004342942646
sg23
F0.0
sg24
F0.0
sg25
F6.927050119654775
sg26
F0.0
sg27
F5.418102332249959
sg28
F0.0
sg29
F6.49462538122957
ssS'BAY FRANKLIN R'
p226
(dp227
g3
F0.0
sg4
F0.426341174147327
sg5
F0.0
sg6
F4.688135317645641
sg7
F0.0
sg8
F5.111070870875091
sg9
F0.0
sg10
I00
sg11
F5.304580996367066
sg12
F0.0
sg13
F0.0
sg14
F0.0
sg15
F0.0
sg16
F0.0
sg17
F0.0
sg18
F0.0
sg19
F1.845098040014257
sg20
F0.0
sg21
F0.10137541146214796
sg22
F5.60206107706281
sg23
F0.0
sg24
F0.0
sg25
F5.163748587789569
sg26
F0.0
sg27
F5.37961729996697
sg28
F0.0
sg29
F5.917871381094937
ssS'MCCARTY DANNY J'
p228
(dp229
g3
F3.1565491513317814
sg4
F0.0
sg5
F0.007511333584611312
sg6
F6.003499804301679
sg7
F0.004021273932924167
sg8
F0.0
sg9
F0.0
sg10
I00
sg11
F0.0
sg12
F0.0
sg13
F0.0
sg14
F1.414973347970818
sg15
F0.0
sg16
F0.0
sg17
F2.7067177823367587
sg18
F2.3344537511509307
sg19
F0.0
sg20
F0.0
sg21
F0.0
sg22
F0.0
sg23
F0.47712125471966244
sg24
F0.0
sg25
F4.975693684940377
sg26
F0.0
sg27
F0.0
sg28
F0.0
sg29
F0.0
ssS'FALLON JAMES B'
p230
(dp231
g3
F3.244524511570084
sg4
F0.9641562822573985
sg5
F0.010270956307130895
sg6
F6.380306453722887
sg7
F0.1741567592784816
sg8
F4.981931807870354
sg9
F37.69831165258319
sg10
I00
sg11
F0.0
sg12
F639.2214698767522
sg13
F6.872275267155129
sg14
F1.6334684555795864
sg15
F91.26659402734396
sg16
F5.536140464784863
sg17
F3.205475036740891
sg18
F1.8808135922807914
sg19
F5.603666078939951
sg20
F5.573275517198841
sg21
F0.9373951995555033
sg22
F6.397940182389796
sg23
F1.5797835966168101
sg24
F5.3824795743734635
sg25
F6.143683848005259
sg26
F8.18644350278287
sg27
F5.4837142150684315
sg28
F93.87210435195858
sg29
F6.565415787684109
ssS'KOENIG MARK E'
p232
(dp233
g3
F3.3756636139608855
sg4
F0.5130121175092468
sg5
F0.009589061713362306
sg6
F6.281341744269503
sg7
F0.09548375727002434
sg8
F5.103865270142923
sg9
F64.93976119248153
sg10
I01
sg11
F0.0
sg12
F646.642245115142
sg13
F6.8099307645214635
sg14
F1.7323937598229686
sg15
F89.37464868508235
sg16
F5.372768439122777
sg17
F3.3564083270389813
sg18
F1.792391689498254
sg19
F5.177418171028795
sg20
F5.477122702365523
sg21
F0.8570190218513299
sg22
F5.845098660434502
sg23
F1.2041199826559248
sg24
F8.97554774083422
sg25
F6.096325580728391
sg26
F7.851896972417016
sg27
F5.4912874371394365
sg28
F53.49972008151404
sg29
F6.200692394876253
ssS'IZZO LAWRENCE L'
p234
(dp235
g3
F2.696356388733332
sg4
F0.0
sg5
F0.02384961049352917
sg6
F6.769032221933892
sg7
F0.10145764075877704
sg8
F4.448613578085621
sg9
F62.06113940648678
sg10
I00
sg11
F0.0
sg12
F264.0117241617884
sg13
F6.876360221948171
sg14
F1.462397997898956
sg15
F77.16779893666022
sg16
F0.0
sg17
F2.6414741105040997
sg18
F1.3010299956639813
sg19
F6.191375551338814
sg20
F5.494851411420212
sg21
F1.8404219472823207
sg22
F0.0
sg23
F0.7781512503836436
sg24
F18.13980626316808
sg25
F6.5628646856951125
sg26
F7.544900225131
sg27
F4.930821728079435
sg28
F0.0
sg29
F6.296576786983717
ssS'TILNEY ELIZABETH A'
p236
(dp237
g3
F2.663700925389648
sg4
F0.3449647562066208
sg5
F0.009340026254143432
sg6
F6.106665245542335
sg7
F0.1983676537668335
sg8
F0.0
sg9
F28.237474355905714
sg10
I00
sg11
F5.7596685999837245
sg12
F599.7201061182504
sg13
F5.838761994230785
sg14
F1.0413926851582251
sg15
F81.11135763339892
sg16
F1.739017171681132
sg17
F2.57978359661681
sg18
F1.3010299956639813
sg19
F5.182003561707906
sg20
F5.4393342730800525
sg21
F0.7575822098051632
sg22
F5.477122702365523
sg23
F1.0791812460476249
sg24
F3.819081364422675
sg25
F5.7610199811152905
sg26
F7.264158304217599
sg27
F5.393292600588499
sg28
F36.93402425433089
sg29
F5.601401536282144
ssS'MARTIN AMANDA K'
p238
(dp239
g3
F3.1826999033360424
sg4
F0.0
sg5
F0.0022767783830448004
sg6
F6.464392377014654
sg7
F0.0
sg8
F3.9144489406985543
sg9
F0.0
sg10
I00
sg11
F0.0
sg12
F3041.421148927649
sg13
F0.0
sg14
F0.9542425094393249
sg15
F369.09485637855164
sg16
F0.0
sg17
F2.6794278966121188
sg18
F2.3636119798921444
sg19
F6.4500111051815034
sg20
F6.7114220963217255
sg21
F0.8403471902957116
sg22
F0.0
sg23
F0.0
sg24
F0.0
sg25
F0.0
sg26
F9.203966539669318
sg27
F5.543432268427185
sg28
F0.0
sg29
F6.924641925613752
ssS'BUY RICHARD B'
p240
(dp241
g3
F3.54703589974001
sg4
F0.5708659469944255
sg5
F0.018817144649884533
sg6
F6.63104403361992
sg7
F0.028337940047555746
sg8
F0.0
sg9
F224.86181156151412
sg10
I00
sg11
F5.841899187023183
sg12
F338.6337647701542
sg13
F7.54329038555323
sg14
F2.1958996524092336
sg15
F56.208681514145454
sg16
F20.144934530753403
sg17
F3.3681008517093516
sg18
F3.022840610876528
sg19
F5.602681673000026
sg20
F5.886413447720945
sg21
F1.0576868906309658
sg22
F5.954242991988481
sg23
F1.8573324964312685
sg24
F37.32405703646745
sg25
F5.955041840338158
sg26
F7.7259084036464385
sg27
F5.519233219916714
sg28
F30.337543639912898
sg29
F6.372120535014965
ssS'CAUSEY RICHARD A'
p242
(dp243
g3
F3.277150613963797
sg4
F0.5325686054118419
sg5
F0.013113479296744059
sg6
F6.28698782860403
sg7
F0.09513375498225339
sg8
F4.486784571399042
sg9
F65.9235336439611
sg10
I01
sg11
F5.371069710329429
sg12
F478.25242678395006
sg13
F6.882567955746136
sg14
F1.7708520116421442
sg15
F64.5692945619574
sg16
F5.598103486099012
sg17
F3.200303182981585
sg18
F1.6989700043360187
sg19
F5.488404046846648
sg20
F5.54406928518988
sg21
F0.8467281074435972
sg22
F6.0000004342942646
sg23
F1.1139433523068367
sg24
F8.900396159087267
sg25
F6.398298414266817
sg26
F7.785046210478675
sg27
F5.618246884828071
sg28
F40.61230382573397
sg29
F6.271553297248933
ssS'TAYLOR MITCHELL S'
p244
(dp245
g3
F2.727541257028556
sg4
F0.513527092445033
sg5
F0.0
sg6
F6.6913470284860015
sg7
F0.0
sg8
F0.0
sg9
F0.0
sg10
I00
sg11
F0.0
sg12
F0.0
sg13
F0.0
sg14
F0.0
sg15
F0.0
sg16
F0.0
sg17
F2.4785664955938436
sg18
F1.4771212547196624
sg19
F0.0
sg20
F0.0
sg21
F1.1795763013594702
sg22
F5.7781519742071765
sg23
F0.0
sg24
F0.0
sg25
F5.751124301236068
sg26
F0.0
sg27
F5.4235980832056025
sg28
F0.0
sg29
F6.0384866346124095
ssS'DONAHUE JR JEFFREY M'
p246
(dp247
g3
F2.937517892017347
sg4
F0.5878781476673285
sg5
F0.08541226372067234
sg6
F6.121113799636688
sg7
F0.17609125905568124
sg8
F4.9834864605786695
sg9
F33.74605663477464
sg10
I00
sg11
F5.477122702365523
sg12
F69.57297865814034
sg13
F6.243415348693075
sg14
F2.2764618041732443
sg15
F8.060024887148494
sg16
F3.3384856853197777
sg17
F2.888179493918325
sg18
F1.3617278360175928
sg19
F2.950364854376123
sg20
F0.0
sg21
F0.6884249712563095
sg22
F5.903090529859707
sg23
F1.0791812460476249
sg24
F3.909478386082894
sg25
F5.49840567454422
sg26
F6.6052434710580625
sg27
F5.4449842297686555
sg28
F6.882830662232457
sg29
F5.942385600981792
ssS'GLISAN JR BEN F'
p248
(dp249
g3
F2.941511432634403
sg4
F0.5027024337122663
sg5
F0.025127489033462885
sg6
F5.927458384110448
sg7
F0.13830269816628146
sg8
F5.100298156671374
sg9
F44.13930088059483
sg10
I01
sg11
F0.0
sg12
F242.94446607179754
sg13
F6.530552925888069
sg14
F1.724275869600789
sg15
F23.215610019561687
sg16
F3.634798455687876
sg17
F2.942008053022313
sg18
F1.2304489213782739
sg19
F5.301700462835897
sg20
F4.851405127681291
sg21
F0.5833499861716873
sg22
F5.7781519742071765
sg23
F0.8450980400142568
sg24
F4.217921948784579
sg25
F5.595296665067975
sg26
F7.32959498601266
sg27
F5.439294790112383
sg28
F20.006075141165333
sg29
F6.104584406959589
ss.