(lp0
S'poi'
p1
aS'salary'
p2
aS'total_payments'
p3
aS'bonus'
p4
aS'deferred_income'
p5
aS'expenses'
p6
aS'other'
p7
aS'long_term_incentive'
p8
aS'restricted_stock'
p9
aS'bonus/salary'
p10
aS'stock/salary'
p11
aS'pca_stocks'
p12
aS'to_messages'
p13
aS'from_poi_to_this_person'
p14
aS'from_messages'
p15
aS'from_this_person_to_poi'
p16
aS'shared_receipt_with_poi'
p17
aS'rec_poi/total_rec'
p18
aS'sent_poi/total_sent'
p19
aS'payments/rec_poi_ratio'
p20
aS'payments/sent_poi_ratio'
p21
aS'log-rec_poi_ratio(payments)'
p22
aS'log-sent_poi_ratio(payments)'
p23
aS'log-rec_poi_ratio(stock-salary)'
p24
aS'log-sent_poi_ratio(stock-salary)'
p25
aS'log-rec_poi_ratio(bonus-salary)'
p26
aS'log-sent_poi_ratio(bonus-salary)'
p27
a.